target datalayout = "e-m:e-p270:32:32-p271:32:32-p272:64:64-i64:64-i128:128-f80:128-n8:16:32:64-S128"
target triple = "x86_64-pc-linux-gnu"

%struct.TTMLContext = type { ptr, ptr, %struct.AVBPrint }
%struct.AVBPrint = type { ptr, i32, i32, i32, [1 x i8], [1000 x i8] }

@.str.34 = private unnamed_addr constant [57 x i8] c"Failed to move the current subtitle dialog to AVBPrint!\0A\00", align 1

; Function Attrs: inlinehint nounwind uwtable
define internal i32 @av_bprint_is_complete(ptr noundef %0) #5 {
  %2 = alloca ptr, align 8
  store ptr %0, ptr %2, align 8, !tbaa !70
  %3 = load ptr, ptr %2, align 8, !tbaa !70
  %4 = getelementptr inbounds nuw %struct.AVBPrint, ptr %3, i32 0, i32 1
  %5 = load i32, ptr %4, align 8, !tbaa !80
  %6 = load ptr, ptr %2, align 8, !tbaa !70
  %7 = getelementptr inbounds nuw %struct.AVBPrint, ptr %6, i32 0, i32 2
  %8 = load i32, ptr %7, align 4, !tbaa !81
  %9 = icmp ult i32 %5, %8
  %10 = zext i1 %9 to i32
  ret i32 %10
}

; Function Attrs: nounwind uwtable
define internal void @ttml_text_cb(ptr noundef %0, ptr noundef %1, i32 noundef %2) #1 {
  %4 = alloca ptr, align 8
  %5 = alloca ptr, align 8
  %6 = alloca i32, align 4
  %7 = alloca ptr, align 8
  %8 = alloca %struct.AVBPrint, align 8
  %9 = alloca ptr, align 8
  %10 = alloca i32, align 4
  store ptr %0, ptr %4, align 8, !tbaa !29
  store ptr %1, ptr %5, align 8, !tbaa !37
  store i32 %2, ptr %6, align 4, !tbaa !30
  call void @llvm.lifetime.start.p0(i64 8, ptr %7) #8
  %11 = load ptr, ptr %4, align 8, !tbaa !29
  store ptr %11, ptr %7, align 8, !tbaa !29
  call void @llvm.lifetime.start.p0(i64 1024, ptr %8) #8
  call void @llvm.lifetime.start.p0(i64 8, ptr %9) #8
  %12 = load ptr, ptr %7, align 8, !tbaa !29
  %13 = getelementptr inbounds nuw %struct.TTMLContext, ptr %12, i32 0, i32 2
  store ptr %13, ptr %9, align 8, !tbaa !70
  %14 = load i32, ptr %6, align 4, !tbaa !30
  call void @av_bprint_init(ptr noundef %8, i32 noundef %14, i32 noundef -1)
  %15 = load ptr, ptr %5, align 8, !tbaa !37
  %16 = load i32, ptr %6, align 4, !tbaa !30
  call void @av_bprint_append_data(ptr noundef %8, ptr noundef %15, i32 noundef %16)
  %17 = call i32 @av_bprint_is_complete(ptr noundef %8)
  %18 = icmp ne i32 %17, 0
  br i1 %18, label %24, label %19

19:                                               ; preds = %3
  %20 = load ptr, ptr %7, align 8, !tbaa !29
  %21 = getelementptr inbounds nuw %struct.TTMLContext, ptr %20, i32 0, i32 0
  %22 = load ptr, ptr %21, align 8, !tbaa !31
  call void (ptr, i32, ptr, ...) @av_log(ptr noundef %22, i32 noundef 16, ptr noundef @.str.34)
  %23 = call i32 @av_bprint_finalize(ptr noundef %8, ptr noundef null)
  store i32 1, ptr %10, align 4
  br label %29

24:                                               ; preds = %3
  %25 = load ptr, ptr %9, align 8, !tbaa !70
  %26 = getelementptr inbounds nuw %struct.AVBPrint, ptr %8, i32 0, i32 0
  %27 = load ptr, ptr %26, align 8, !tbaa !83
  call void @av_bprint_escape(ptr noundef %25, ptr noundef %27, ptr noundef null, i32 noundef 3, i32 noundef 0)
  %28 = call i32 @av_bprint_finalize(ptr noundef %8, ptr noundef null)
  store i32 0, ptr %10, align 4
  br label %29

29:                                               ; preds = %24, %19
  call void @llvm.lifetime.end.p0(i64 8, ptr %9) #8
  call void @llvm.lifetime.end.p0(i64 1024, ptr %8) #8
  call void @llvm.lifetime.end.p0(i64 8, ptr %7) #8
  %30 = load i32, ptr %10, align 4
  switch i32 %30, label %32 [
    i32 0, label %31
    i32 1, label %31
  ]

31:                                               ; preds = %29, %29
  ret void

32:                                               ; preds = %29
  unreachable
}