; Function Attrs: nounwind uwtable
define internal void @ttml_text_cb(ptr noundef %0, ptr noundef %1, i32 noundef %2) #1 {
  %4 = alloca %struct.AVBPrint, align 8
  call void @llvm.lifetime.start.p0(i64 1024, ptr nonnull %4) #7
  call void @av_bprint_init(ptr noundef nonnull %4, i32 noundef %2, i32 noundef -1) #7
  call void @av_bprint_append_data(ptr noundef nonnull %4, ptr noundef %1, i32 noundef %2) #7
  %5 = getelementptr inbounds nuw i8, ptr %4, i64 8
  %.val = load i32, ptr %5, align 8, !tbaa !41
  %6 = getelementptr inbounds nuw i8, ptr %4, i64 12
  %.val6 = load i32, ptr %6, align 4, !tbaa !42
  %.not = icmp ult i32 %.val, %.val6
  br i1 %.not, label %9, label %7

7:                                                ; preds = %3
  %8 = load ptr, ptr %0, align 8, !tbaa !27
  call void (ptr, i32, ptr, ...) @av_log(ptr noundef %8, i32 noundef 16, ptr noundef nonnull @.str.34) #7
  br label %12

9:                                                ; preds = %3
  %10 = getelementptr inbounds nuw i8, ptr %0, i64 16
  %11 = load ptr, ptr %4, align 8, !tbaa !63
  call void @av_bprint_escape(ptr noundef nonnull %10, ptr noundef %11, ptr noundef null, i32 noundef 3, i32 noundef 0) #7
  br label %12

12:                                               ; preds = %9, %7
  %13 = call i32 @av_bprint_finalize(ptr noundef nonnull %4, ptr noundef null) #7
  call void @llvm.lifetime.end.p0(i64 1024, ptr nonnull %4) #7
  ret void
}